target datalayout = "e-m:e-p270:32:32-p271:32:32-p272:64:64-i64:64-i128:128-f80:128-n8:16:32:64-S128"
target triple = "x86_64-pc-linux-gnu"

%"class.cv::UMat" = type { i32, i32, i32, i32, ptr, i32, ptr, i64, %"struct.cv::MatSize", %"struct.cv::MatStep" }
%"struct.cv::MatSize" = type { ptr }
%"struct.cv::MatStep" = type { ptr, [2 x i64] }

; Function Attrs: inlinehint mustprogress nounwind uwtable
define linkonce_odr hidden noundef nonnull align 4 dereferenceable(4) ptr @_ZNK2cv7MatSizeixEi(ptr noundef nonnull align 8 dereferenceable(8) %0, i32 noundef %1) #5 comdat align 2 {
  %3 = alloca ptr, align 8
  %4 = alloca i32, align 4
  store ptr %0, ptr %3, align 8, !tbaa !82
  store i32 %1, ptr %4, align 4, !tbaa !37
  %5 = load ptr, ptr %3, align 8
  %6 = getelementptr inbounds nuw %"struct.cv::MatSize", ptr %5, i32 0, i32 0
  %7 = load ptr, ptr %6, align 8, !tbaa !85
  %8 = load i32, ptr %4, align 4, !tbaa !37
  %9 = sext i32 %8 to i64
  %10 = getelementptr inbounds i32, ptr %7, i64 %9
  ret ptr %10
}

; Function Attrs: mustprogress uwtable
define noundef i64 @_ZNK2cv4UMat5totalEv(ptr noundef nonnull align 8 dereferenceable(80) %0) #3 align 2 {
  %2 = alloca i64, align 8
  %3 = alloca ptr, align 8
  %4 = alloca i64, align 8
  %5 = alloca i32, align 4
  store ptr %0, ptr %3, align 8, !tbaa !65
  %6 = load ptr, ptr %3, align 8
  %7 = getelementptr inbounds nuw %"class.cv::UMat", ptr %6, i32 0, i32 1
  %8 = load i32, ptr %7, align 4, !tbaa !75
  %9 = icmp sle i32 %8, 2
  br i1 %9, label %10, label %18

10:                                               ; preds = %1
  %11 = getelementptr inbounds nuw %"class.cv::UMat", ptr %6, i32 0, i32 2
  %12 = load i32, ptr %11, align 8, !tbaa !76
  %13 = sext i32 %12 to i64
  %14 = getelementptr inbounds nuw %"class.cv::UMat", ptr %6, i32 0, i32 3
  %15 = load i32, ptr %14, align 4, !tbaa !77
  %16 = sext i32 %15 to i64
  %17 = mul i64 %13, %16
  store i64 %17, ptr %2, align 8
  br label %38

18:                                               ; preds = %1
  call void @llvm.lifetime.start.p0(i64 8, ptr %4) #16
  store i64 1, ptr %4, align 8, !tbaa !50
  call void @llvm.lifetime.start.p0(i64 4, ptr %5) #16
  store i32 0, ptr %5, align 4, !tbaa !37
  br label %19

19:                                               ; preds = %33, %18
  %20 = load i32, ptr %5, align 4, !tbaa !37
  %21 = getelementptr inbounds nuw %"class.cv::UMat", ptr %6, i32 0, i32 1
  %22 = load i32, ptr %21, align 4, !tbaa !75
  %23 = icmp slt i32 %20, %22
  br i1 %23, label %25, label %24

24:                                               ; preds = %19
  call void @llvm.lifetime.end.p0(i64 4, ptr %5) #16
  br label %36

25:                                               ; preds = %19
  %26 = getelementptr inbounds nuw %"class.cv::UMat", ptr %6, i32 0, i32 8
  %27 = load i32, ptr %5, align 4, !tbaa !37
  %28 = call noundef nonnull align 4 dereferenceable(4) ptr @_ZNK2cv7MatSizeixEi(ptr noundef nonnull align 8 dereferenceable(8) %26, i32 noundef %27)
  %29 = load i32, ptr %28, align 4, !tbaa !37
  %30 = sext i32 %29 to i64
  %31 = load i64, ptr %4, align 8, !tbaa !50
  %32 = mul i64 %31, %30
  store i64 %32, ptr %4, align 8, !tbaa !50
  br label %33

33:                                               ; preds = %25
  %34 = load i32, ptr %5, align 4, !tbaa !37
  %35 = add nsw i32 %34, 1
  store i32 %35, ptr %5, align 4, !tbaa !37
  br label %19, !llvm.loop !106

36:                                               ; preds = %24
  %37 = load i64, ptr %4, align 8, !tbaa !50
  store i64 %37, ptr %2, align 8
  call void @llvm.lifetime.end.p0(i64 8, ptr %4) #16
  br label %38

38:                                               ; preds = %36, %10
  %39 = load i64, ptr %2, align 8
  ret i64 %39
}