; Function Attrs: mustprogress nofree norecurse nosync nounwind willreturn memory(read, inaccessiblemem: none) uwtable
define noundef i64 @_ZNK2cv4UMat5totalEv(ptr noundef nonnull readonly align 8 captures(none) dereferenceable(80) %0) local_unnamed_addr #9 align 2 {
  %2 = getelementptr inbounds nuw i8, ptr %0, i64 4
  %3 = load i32, ptr %2, align 4, !tbaa !58
  %4 = icmp slt i32 %3, 3
  br i1 %4, label %7, label %.preheader

.preheader:                                       ; preds = %1
  %5 = getelementptr inbounds nuw i8, ptr %0, i64 48
  %6 = load ptr, ptr %5, align 8, !tbaa !51
  %wide.trip.count = zext nneg i32 %3 to i64
  br label %15

7:                                                ; preds = %1
  %8 = getelementptr inbounds nuw i8, ptr %0, i64 8
  %9 = load i32, ptr %8, align 8, !tbaa !64
  %10 = sext i32 %9 to i64
  %11 = getelementptr inbounds nuw i8, ptr %0, i64 12
  %12 = load i32, ptr %11, align 4, !tbaa !65
  %13 = sext i32 %12 to i64
  %14 = mul nsw i64 %13, %10
  br label %.loopexit

15:                                               ; preds = %.preheader, %15
  %indvars.iv = phi i64 [ 0, %.preheader ], [ %indvars.iv.next, %15 ]
  %.068 = phi i64 [ 1, %.preheader ], [ %19, %15 ]
  %16 = getelementptr inbounds nuw i32, ptr %6, i64 %indvars.iv
  %17 = load i32, ptr %16, align 4, !tbaa !28
  %18 = sext i32 %17 to i64
  %19 = mul i64 %.068, %18
  %indvars.iv.next = add nuw nsw i64 %indvars.iv, 1
  %exitcond.not = icmp eq i64 %indvars.iv.next, %wide.trip.count
  br i1 %exitcond.not, label %.loopexit, label %15, !llvm.loop !66

.loopexit:                                        ; preds = %15, %7
  %.07 = phi i64 [ %14, %7 ], [ %19, %15 ]
  ret i64 %.07
}